target datalayout = "e-m:e-p270:32:32-p271:32:32-p272:64:64-i64:64-i128:128-f80:128-n8:16:32:64-S128"
target triple = "x86_64-pc-linux-gnu"

%"class.std::shared_ptr" = type { %"class.std::__shared_ptr" }
%"class.std::__shared_ptr" = type { ptr, %"class.std::__shared_count" }
%"class.std::__shared_count" = type { ptr }
%"class.arrow::Status" = type { ptr }
%"struct.arrow::ipc::IpcPayload" = type { i32, %"class.std::shared_ptr", %"class.std::vector", %"class.std::vector.7", i64, i64 }
%"class.std::vector" = type { %"struct.std::_Vector_base" }
%"struct.std::_Vector_base" = type { %"struct.std::_Vector_base<std::shared_ptr<arrow::Buffer>, std::allocator<std::shared_ptr<arrow::Buffer>>>::_Vector_impl" }
%"struct.std::_Vector_base<std::shared_ptr<arrow::Buffer>, std::allocator<std::shared_ptr<arrow::Buffer>>>::_Vector_impl" = type { %"struct.std::_Vector_base<std::shared_ptr<arrow::Buffer>, std::allocator<std::shared_ptr<arrow::Buffer>>>::_Vector_impl_data" }
%"struct.std::_Vector_base<std::shared_ptr<arrow::Buffer>, std::allocator<std::shared_ptr<arrow::Buffer>>>::_Vector_impl_data" = type { ptr, ptr, ptr }
%"class.std::vector.7" = type { %"struct.std::_Vector_base.8" }
%"struct.std::_Vector_base.8" = type { %"struct.std::_Vector_base<long, std::allocator<long>>::_Vector_impl" }
%"struct.std::_Vector_base<long, std::allocator<long>>::_Vector_impl" = type { %"struct.std::_Vector_base<long, std::allocator<long>>::_Vector_impl_data" }
%"struct.std::_Vector_base<long, std::allocator<long>>::_Vector_impl_data" = type { ptr, ptr, ptr }
%"class.arrow::ipc::(anonymous namespace)::DictionarySerializer" = type <{ %"class.arrow::ipc::(anonymous namespace)::RecordBatchSerializer", i64, i8, [7 x i8] }>
%"class.arrow::ipc::(anonymous namespace)::RecordBatchSerializer" = type { ptr, ptr, %"class.std::shared_ptr.35", %"class.std::vector.38", %"class.std::vector.43", %"class.std::vector.7", ptr, i64, i64 }
%"class.std::shared_ptr.35" = type { %"class.std::__shared_ptr.36" }
%"class.std::__shared_ptr.36" = type { ptr, %"class.std::__shared_count" }
%"class.std::vector.38" = type { %"struct.std::_Vector_base.39" }
%"struct.std::_Vector_base.39" = type { %"struct.std::_Vector_base<arrow::ipc::internal::FieldMetadata, std::allocator<arrow::ipc::internal::FieldMetadata>>::_Vector_impl" }
%"struct.std::_Vector_base<arrow::ipc::internal::FieldMetadata, std::allocator<arrow::ipc::internal::FieldMetadata>>::_Vector_impl" = type { %"struct.std::_Vector_base<arrow::ipc::internal::FieldMetadata, std::allocator<arrow::ipc::internal::FieldMetadata>>::_Vector_impl_data" }
%"struct.std::_Vector_base<arrow::ipc::internal::FieldMetadata, std::allocator<arrow::ipc::internal::FieldMetadata>>::_Vector_impl_data" = type { ptr, ptr, ptr }
%"class.std::vector.43" = type { %"struct.std::_Vector_base.44" }
%"struct.std::_Vector_base.44" = type { %"struct.std::_Vector_base<arrow::ipc::internal::BufferMetadata, std::allocator<arrow::ipc::internal::BufferMetadata>>::_Vector_impl" }
%"struct.std::_Vector_base<arrow::ipc::internal::BufferMetadata, std::allocator<arrow::ipc::internal::BufferMetadata>>::_Vector_impl" = type { %"struct.std::_Vector_base<arrow::ipc::internal::BufferMetadata, std::allocator<arrow::ipc::internal::BufferMetadata>>::_Vector_impl_data" }
%"struct.std::_Vector_base<arrow::ipc::internal::BufferMetadata, std::allocator<arrow::ipc::internal::BufferMetadata>>::_Vector_impl_data" = type { ptr, ptr, ptr }

; Function Attrs: mustprogress uwtable
define internal void @_ZN5arrow3ipc12_GLOBAL__N_120DictionarySerializer17SerializeMetadataEl(ptr dead_on_unwind noalias writable sret(%"class.arrow::Status") align 8 %0, ptr noundef nonnull align 8 dereferenceable(137) %1, i64 noundef %2) unnamed_addr #1 align 2 {
  %4 = alloca ptr, align 8
  %5 = alloca ptr, align 8
  %6 = alloca i64, align 8
  store ptr %0, ptr %4, align 8
  store ptr %1, ptr %5, align 8, !tbaa !124
  store i64 %2, ptr %6, align 8, !tbaa !43
  %7 = load ptr, ptr %5, align 8
  %8 = getelementptr inbounds nuw %"class.arrow::ipc::(anonymous namespace)::DictionarySerializer", ptr %7, i32 0, i32 1
  %9 = load i64, ptr %8, align 8, !tbaa !126
  %10 = getelementptr inbounds nuw %"class.arrow::ipc::(anonymous namespace)::DictionarySerializer", ptr %7, i32 0, i32 2
  %11 = load i8, ptr %10, align 8, !tbaa !142, !range !86, !noundef !87
  %12 = trunc i8 %11 to i1
  %13 = load i64, ptr %6, align 8, !tbaa !43
  %14 = getelementptr inbounds nuw %"class.arrow::ipc::(anonymous namespace)::RecordBatchSerializer", ptr %7, i32 0, i32 1
  %15 = load ptr, ptr %14, align 8, !tbaa !160
  %16 = getelementptr inbounds nuw %"struct.arrow::ipc::IpcPayload", ptr %15, i32 0, i32 4
  %17 = load i64, ptr %16, align 8, !tbaa !185
  %18 = getelementptr inbounds nuw %"class.arrow::ipc::(anonymous namespace)::RecordBatchSerializer", ptr %7, i32 0, i32 2
  %19 = getelementptr inbounds nuw %"class.arrow::ipc::(anonymous namespace)::RecordBatchSerializer", ptr %7, i32 0, i32 3
  %20 = getelementptr inbounds nuw %"class.arrow::ipc::(anonymous namespace)::RecordBatchSerializer", ptr %7, i32 0, i32 4
  %21 = getelementptr inbounds nuw %"class.arrow::ipc::(anonymous namespace)::RecordBatchSerializer", ptr %7, i32 0, i32 5
  %22 = getelementptr inbounds nuw %"class.arrow::ipc::(anonymous namespace)::RecordBatchSerializer", ptr %7, i32 0, i32 6
  %23 = load ptr, ptr %22, align 8, !tbaa !179
  %24 = getelementptr inbounds nuw %"class.arrow::ipc::(anonymous namespace)::RecordBatchSerializer", ptr %7, i32 0, i32 1
  %25 = load ptr, ptr %24, align 8, !tbaa !160
  %26 = getelementptr inbounds nuw %"struct.arrow::ipc::IpcPayload", ptr %25, i32 0, i32 1
  call void @_ZN5arrow3ipc8internal22WriteDictionaryMessageElbllRKSt10shared_ptrIKNS_16KeyValueMetadataEERKSt6vectorINS1_13FieldMetadataESaIS9_EERKS8_INS1_14BufferMetadataESaISE_EERKS8_IlSaIlEERKNS0_15IpcWriteOptionsEPS2_INS_6BufferEE(ptr dead_on_unwind writable sret(%"class.arrow::Status") align 8 %0, i64 noundef %9, i1 noundef zeroext %12, i64 noundef %13, i64 noundef %17, ptr noundef nonnull align 8 dereferenceable(16) %18, ptr noundef nonnull align 8 dereferenceable(24) %19, ptr noundef nonnull align 8 dereferenceable(24) %20, ptr noundef nonnull align 8 dereferenceable(24) %21, ptr noundef nonnull align 8 dereferenceable(60) %23, ptr noundef %26)
  ret void
}