; Function Attrs: mustprogress uwtable
define internal void @_ZN5arrow3ipc12_GLOBAL__N_120DictionarySerializer17SerializeMetadataEl(ptr dead_on_unwind noalias writable sret(%"class.arrow::Status") align 8 %0, ptr noundef nonnull align 8 dereferenceable(137) %1, i64 noundef %2) unnamed_addr #1 align 2 {
  %4 = getelementptr inbounds nuw i8, ptr %1, i64 128
  %5 = load i64, ptr %4, align 8, !tbaa !109
  %6 = getelementptr inbounds nuw i8, ptr %1, i64 136
  %7 = load i8, ptr %6, align 8, !tbaa !111, !range !189, !noundef !190
  %8 = trunc nuw i8 %7 to i1
  %9 = getelementptr inbounds nuw i8, ptr %1, i64 8
  %10 = load ptr, ptr %9, align 8, !tbaa !78
  %11 = getelementptr inbounds nuw i8, ptr %10, i64 72
  %12 = load i64, ptr %11, align 8, !tbaa !291
  %13 = getelementptr inbounds nuw i8, ptr %1, i64 16
  %14 = getelementptr inbounds nuw i8, ptr %1, i64 32
  %15 = getelementptr inbounds nuw i8, ptr %1, i64 56
  %16 = getelementptr inbounds nuw i8, ptr %1, i64 80
  %17 = getelementptr inbounds nuw i8, ptr %1, i64 104
  %18 = load ptr, ptr %17, align 8, !tbaa !186
  %19 = getelementptr inbounds nuw i8, ptr %10, i64 8
  tail call void @_ZN5arrow3ipc8internal22WriteDictionaryMessageElbllRKSt10shared_ptrIKNS_16KeyValueMetadataEERKSt6vectorINS1_13FieldMetadataESaIS9_EERKS8_INS1_14BufferMetadataESaISE_EERKS8_IlSaIlEERKNS0_15IpcWriteOptionsEPS2_INS_6BufferEE(ptr dead_on_unwind writable sret(%"class.arrow::Status") align 8 %0, i64 noundef %5, i1 noundef zeroext %8, i64 noundef %2, i64 noundef %12, ptr noundef nonnull align 8 dereferenceable(16) %13, ptr noundef nonnull align 8 dereferenceable(24) %14, ptr noundef nonnull align 8 dereferenceable(24) %15, ptr noundef nonnull align 8 dereferenceable(24) %16, ptr noundef nonnull align 8 dereferenceable(60) %18, ptr noundef nonnull %19)
  ret void
}